; ModuleID = '40/312.c'
source_filename = "40/312.c"
target datalayout = "e-m:e-p270:32:32-p271:32:32-p272:64:64-i64:64-f80:128-n8:16:32:64-S128"
target triple = "x86_64-pc-linux-gnu"

@.str = private unnamed_addr constant [20 x i8] c"%lf %lf %lf %lf %lf\00", align 1
@.str.1 = private unnamed_addr constant [15 x i8] c"Invalid input\0A\00", align 1
@.str.2 = private unnamed_addr constant [7 x i8] c"%.4lf\0A\00", align 1

; Function Attrs: noinline nounwind uwtable
define dso_local i32 @main() #0 {
  %1 = alloca i32, align 4
  %2 = alloca double, align 8
  %3 = alloca double, align 8
  %4 = alloca double, align 8
  %5 = alloca double, align 8
  %6 = alloca double, align 8
  %7 = alloca double, align 8
  %8 = alloca double, align 8
  %9 = alloca double, align 8
  store i32 0, i32* %1, align 4
  %10 = call i32 (i8*, ...) @__isoc99_scanf(i8* getelementptr inbounds ([20 x i8], [20 x i8]* @.str, i64 0, i64 0), double* %2, double* %3, double* %4, double* %5, double* %9)
  %11 = load double, double* %2, align 8
  %12 = load double, double* %3, align 8
  %13 = fadd double %11, %12
  %14 = load double, double* %4, align 8
  %15 = fadd double %13, %14
  %16 = load double, double* %5, align 8
  %17 = fadd double %15, %16
  %18 = fdiv double %17, 2.000000e+00
  store double %18, double* %6, align 8
  %19 = load double, double* %9, align 8
  %20 = fdiv double %19, 7.200000e+02
  %21 = fmul double %20, 2.000000e+00
  %22 = fmul double %21, 1.000000e+02
  %23 = call double @cos(double %22) #3
  store double %23, double* %8, align 8
  %24 = load double, double* %6, align 8
  %25 = load double, double* %2, align 8
  %26 = fsub double %24, %25
  %27 = load double, double* %6, align 8
  %28 = load double, double* %3, align 8
  %29 = fsub double %27, %28
  %30 = fmul double %26, %29
  %31 = load double, double* %6, align 8
  %32 = load double, double* %4, align 8
  %33 = fsub double %31, %32
  %34 = fmul double %30, %33
  %35 = load double, double* %6, align 8
  %36 = load double, double* %5, align 8
  %37 = fsub double %35, %36
  %38 = fmul double %34, %37
  %39 = load double, double* %2, align 8
  %40 = load double, double* %3, align 8
  %41 = fmul double %39, %40
  %42 = load double, double* %4, align 8
  %43 = fmul double %41, %42
  %44 = load double, double* %5, align 8
  %45 = fmul double %43, %44
  %46 = load double, double* %8, align 8
  %47 = fmul double %45, %46
  %48 = load double, double* %8, align 8
  %49 = fmul double %47, %48
  %50 = fsub double %38, %49
  %51 = call double @sqrt(double %50) #3
  store double %51, double* %7, align 8
  %52 = load double, double* %6, align 8
  %53 = load double, double* %2, align 8
  %54 = fsub double %52, %53
  %55 = load double, double* %6, align 8
  %56 = load double, double* %3, align 8
  %57 = fsub double %55, %56
  %58 = fmul double %54, %57
  %59 = load double, double* %6, align 8
  %60 = load double, double* %4, align 8
  %61 = fsub double %59, %60
  %62 = fmul double %58, %61
  %63 = load double, double* %6, align 8
  %64 = load double, double* %5, align 8
  %65 = fsub double %63, %64
  %66 = fmul double %62, %65
  %67 = load double, double* %2, align 8
  %68 = load double, double* %3, align 8
  %69 = fmul double %67, %68
  %70 = load double, double* %4, align 8
  %71 = fmul double %69, %70
  %72 = load double, double* %5, align 8
  %73 = fmul double %71, %72
  %74 = load double, double* %8, align 8
  %75 = fmul double %73, %74
  %76 = load double, double* %8, align 8
  %77 = fmul double %75, %76
  %78 = fsub double %66, %77
  %79 = fcmp olt double %78, 0.000000e+00
  br i1 %79, label %80, label %82

80:                                               ; preds = %0
  %81 = call i32 (i8*, ...) @printf(i8* getelementptr inbounds ([15 x i8], [15 x i8]* @.str.1, i64 0, i64 0))
  br label %82

82:                                               ; preds = %80, %0
  %83 = load double, double* %6, align 8
  %84 = load double, double* %2, align 8
  %85 = fsub double %83, %84
  %86 = load double, double* %6, align 8
  %87 = load double, double* %3, align 8
  %88 = fsub double %86, %87
  %89 = fmul double %85, %88
  %90 = load double, double* %6, align 8
  %91 = load double, double* %4, align 8
  %92 = fsub double %90, %91
  %93 = fmul double %89, %92
  %94 = load double, double* %6, align 8
  %95 = load double, double* %5, align 8
  %96 = fsub double %94, %95
  %97 = fmul double %93, %96
  %98 = load double, double* %2, align 8
  %99 = load double, double* %3, align 8
  %100 = fmul double %98, %99
  %101 = load double, double* %4, align 8
  %102 = fmul double %100, %101
  %103 = load double, double* %5, align 8
  %104 = fmul double %102, %103
  %105 = load double, double* %8, align 8
  %106 = fmul double %104, %105
  %107 = load double, double* %8, align 8
  %108 = fmul double %106, %107
  %109 = fsub double %97, %108
  %110 = fcmp oge double %109, 0.000000e+00
  br i1 %110, label %111, label %114

111:                                              ; preds = %82
  %112 = load double, double* %7, align 8
  %113 = call i32 (i8*, ...) @printf(i8* getelementptr inbounds ([7 x i8], [7 x i8]* @.str.2, i64 0, i64 0), double %112)
  br label %114

114:                                              ; preds = %111, %82
  ret i32 1
}

declare dso_local i32 @__isoc99_scanf(i8*, ...) #1

; Function Attrs: nounwind
declare dso_local double @cos(double) #2

; Function Attrs: nounwind
declare dso_local double @sqrt(double) #2

declare dso_local i32 @printf(i8*, ...) #1


!llvm.module.flags = !{!0}
!llvm.ident = !{!1}

!0 = !{i32 1, !"wchar_size", i32 4}
!1 = !{!"clang version 10.0.0-4ubuntu1 "}
